; Function Attrs: mustprogress nofree norecurse nosync nounwind willreturn memory(none) uwtable
define dso_local { ptr, i64 } @_ZN5clang41AsanDetectStackUseAfterReturnModeToStringEN4llvm33AsanDetectStackUseAfterReturnModeE(i32 noundef %0) local_unnamed_addr #2 {
  %2 = icmp ult i32 %0, 3
  br i1 %2, label %switch.lookup, label %5

switch.lookup:                                    ; preds = %1
  %3 = zext nneg i32 %0 to i64
  %switch.gep = getelementptr inbounds nuw [3 x i64], ptr @switch.table._ZN5clang41AsanDetectStackUseAfterReturnModeToStringEN4llvm33AsanDetectStackUseAfterReturnModeE, i64 0, i64 %3
  %switch.load = load i64, ptr %switch.gep, align 8
  %4 = zext nneg i32 %0 to i64
  %switch.gep1 = getelementptr inbounds nuw [3 x ptr], ptr @switch.table._ZN5clang41AsanDetectStackUseAfterReturnModeToStringEN4llvm33AsanDetectStackUseAfterReturnModeE.1, i64 0, i64 %4
  %switch.load2 = load ptr, ptr %switch.gep1, align 8
  br label %5

5:                                                ; preds = %1, %switch.lookup
  %.sroa.6.0 = phi i64 [ %switch.load, %switch.lookup ], [ 7, %1 ]
  %.sroa.0.0 = phi ptr [ %switch.load2, %switch.lookup ], [ @.str.76, %1 ]
  %.fca.0.insert = insertvalue { ptr, i64 } poison, ptr %.sroa.0.0, 0
  %.fca.1.insert = insertvalue { ptr, i64 } %.fca.0.insert, i64 %.sroa.6.0, 1
  ret { ptr, i64 } %.fca.1.insert
}